target datalayout = "e-m:e-p270:32:32-p271:32:32-p272:64:64-i64:64-i128:128-f80:128-n8:16:32:64-S128"
target triple = "x86_64-pc-linux-gnu"

%struct._php_random_algo_with_state = type { ptr, ptr }

; Function Attrs: nounwind uwtable
define internal double @gamma_low(double noundef %0) #0 {
  %2 = alloca double, align 8
  store double %0, ptr %2, align 8
  %3 = load double, ptr %2, align 8
  %4 = load double, ptr %2, align 8
  %5 = call double @nextafter(double noundef %4, double noundef 0xFFEFFFFFFFFFFFFF) #4
  %6 = fsub double %3, %5
  ret double %6
}

; Function Attrs: nounwind uwtable
define internal double @gamma_high(double noundef %0) #0 {
  %2 = alloca double, align 8
  store double %0, ptr %2, align 8
  %3 = load double, ptr %2, align 8
  %4 = call double @nextafter(double noundef %3, double noundef 0x7FEFFFFFFFFFFFFF) #4
  %5 = load double, ptr %2, align 8
  %6 = fsub double %4, %5
  ret double %6
}

; Function Attrs: nounwind uwtable
define internal void @splitint64(i64 noundef %0, ptr noundef %1, ptr noundef %2) #0 {
  %4 = alloca i64, align 8
  %5 = alloca ptr, align 8
  %6 = alloca ptr, align 8
  store i64 %0, ptr %4, align 8
  store ptr %1, ptr %5, align 8
  store ptr %2, ptr %6, align 8
  %7 = load i64, ptr %4, align 8
  %8 = lshr i64 %7, 2
  %9 = uitofp i64 %8 to double
  %10 = load ptr, ptr %5, align 8
  store double %9, ptr %10, align 8
  %11 = load i64, ptr %4, align 8
  %12 = and i64 %11, 3
  %13 = uitofp i64 %12 to double
  %14 = load ptr, ptr %6, align 8
  store double %13, ptr %14, align 8
  ret void
}

; Function Attrs: nounwind uwtable
define internal i64 @ceilint(double noundef %0, double noundef %1, double noundef %2) #0 {
  %4 = alloca double, align 8
  %5 = alloca double, align 8
  %6 = alloca double, align 8
  %7 = alloca double, align 8
  %8 = alloca double, align 8
  %9 = alloca double, align 8
  store double %0, ptr %4, align 8
  store double %1, ptr %5, align 8
  store double %2, ptr %6, align 8
  %10 = load double, ptr %5, align 8
  %11 = load double, ptr %6, align 8
  %12 = fdiv double %10, %11
  %13 = load double, ptr %4, align 8
  %14 = load double, ptr %6, align 8
  %15 = fdiv double %13, %14
  %16 = fsub double %12, %15
  store double %16, ptr %7, align 8
  %17 = load double, ptr %4, align 8
  %18 = call double @llvm.fabs.f64(double %17)
  %19 = load double, ptr %5, align 8
  %20 = call double @llvm.fabs.f64(double %19)
  %21 = fcmp ole double %18, %20
  br i1 %21, label %22, label %33

22:                                               ; preds = %3
  %23 = load double, ptr %4, align 8
  %24 = fneg double %23
  %25 = load double, ptr %6, align 8
  %26 = fdiv double %24, %25
  %27 = load double, ptr %7, align 8
  %28 = load double, ptr %5, align 8
  %29 = load double, ptr %6, align 8
  %30 = fdiv double %28, %29
  %31 = fsub double %27, %30
  %32 = fsub double %26, %31
  store double %32, ptr %8, align 8
  br label %43

33:                                               ; preds = %3
  %34 = load double, ptr %5, align 8
  %35 = load double, ptr %6, align 8
  %36 = fdiv double %34, %35
  %37 = load double, ptr %7, align 8
  %38 = load double, ptr %4, align 8
  %39 = load double, ptr %6, align 8
  %40 = fdiv double %38, %39
  %41 = fadd double %37, %40
  %42 = fsub double %36, %41
  store double %42, ptr %8, align 8
  br label %43

43:                                               ; preds = %33, %22
  %44 = load double, ptr %7, align 8
  %45 = call double @llvm.ceil.f64(double %44)
  store double %45, ptr %9, align 8
  %46 = load double, ptr %7, align 8
  %47 = load double, ptr %9, align 8
  %48 = fcmp une double %46, %47
  br i1 %48, label %49, label %52

49:                                               ; preds = %43
  %50 = load double, ptr %9, align 8
  %51 = fptoui double %50 to i64
  br label %60

52:                                               ; preds = %43
  %53 = load double, ptr %9, align 8
  %54 = fptoui double %53 to i64
  %55 = load double, ptr %8, align 8
  %56 = fcmp ogt double %55, 0.000000e+00
  %57 = zext i1 %56 to i32
  %58 = sext i32 %57 to i64
  %59 = add i64 %54, %58
  br label %60

60:                                               ; preds = %52, %49
  %61 = phi i64 [ %51, %49 ], [ %59, %52 ]
  ret i64 %61
}

; Function Attrs: nounwind uwtable
define internal double @gamma_max(double noundef %0, double noundef %1) #0 {
  %3 = alloca double, align 8
  %4 = alloca double, align 8
  store double %0, ptr %3, align 8
  store double %1, ptr %4, align 8
  %5 = load double, ptr %3, align 8
  %6 = call double @llvm.fabs.f64(double %5)
  %7 = load double, ptr %4, align 8
  %8 = call double @llvm.fabs.f64(double %7)
  %9 = fcmp ogt double %6, %8
  br i1 %9, label %10, label %13

10:                                               ; preds = %2
  %11 = load double, ptr %3, align 8
  %12 = call double @gamma_high(double noundef %11)
  br label %16

13:                                               ; preds = %2
  %14 = load double, ptr %4, align 8
  %15 = call double @gamma_low(double noundef %14)
  br label %16

16:                                               ; preds = %13, %10
  %17 = phi double [ %12, %10 ], [ %15, %13 ]
  ret double %17
}

; Function Attrs: nounwind uwtable
define double @php_random_gammasection_open_open(ptr %0, ptr %1, double noundef %2, double noundef %3) #0 {
  %5 = alloca double, align 8
  %6 = alloca %struct._php_random_algo_with_state, align 8
  %7 = alloca double, align 8
  %8 = alloca double, align 8
  %9 = alloca double, align 8
  %10 = alloca i64, align 8
  %11 = alloca i64, align 8
  %12 = alloca double, align 8
  %13 = alloca double, align 8
  %14 = alloca double, align 8
  %15 = alloca double, align 8
  %16 = getelementptr inbounds { ptr, ptr }, ptr %6, i32 0, i32 0
  store ptr %0, ptr %16, align 8
  %17 = getelementptr inbounds { ptr, ptr }, ptr %6, i32 0, i32 1
  store ptr %1, ptr %17, align 8
  store double %2, ptr %7, align 8
  store double %3, ptr %8, align 8
  %18 = load double, ptr %7, align 8
  %19 = load double, ptr %8, align 8
  %20 = call double @gamma_max(double noundef %18, double noundef %19)
  store double %20, ptr %9, align 8
  %21 = load double, ptr %7, align 8
  %22 = load double, ptr %8, align 8
  %23 = load double, ptr %9, align 8
  %24 = call i64 @ceilint(double noundef %21, double noundef %22, double noundef %23)
  store i64 %24, ptr %10, align 8
  %25 = load double, ptr %8, align 8
  %26 = load double, ptr %7, align 8
  %27 = fcmp ole double %25, %26
  br i1 %27, label %31, label %28

28:                                               ; preds = %4
  %29 = load i64, ptr %10, align 8
  %30 = icmp ult i64 %29, 2
  br label %31

31:                                               ; preds = %28, %4
  %32 = phi i1 [ true, %4 ], [ %30, %28 ]
  %33 = xor i1 %32, true
  %34 = xor i1 %33, true
  %35 = zext i1 %34 to i32
  %36 = sext i32 %35 to i64
  %37 = icmp ne i64 %36, 0
  br i1 %37, label %38, label %39

38:                                               ; preds = %31
  store double 0x7FF8000000000000, ptr %5, align 8
  br label %77

39:                                               ; preds = %31
  %40 = load i64, ptr %10, align 8
  %41 = sub i64 %40, 2
  %42 = getelementptr inbounds { ptr, ptr }, ptr %6, i32 0, i32 0
  %43 = load ptr, ptr %42, align 8
  %44 = getelementptr inbounds { ptr, ptr }, ptr %6, i32 0, i32 1
  %45 = load ptr, ptr %44, align 8
  %46 = call i64 @php_random_range64(ptr %43, ptr %45, i64 noundef %41)
  %47 = add i64 1, %46
  store i64 %47, ptr %11, align 8
  %48 = load double, ptr %7, align 8
  %49 = call double @llvm.fabs.f64(double %48)
  %50 = load double, ptr %8, align 8
  %51 = call double @llvm.fabs.f64(double %50)
  %52 = fcmp ole double %49, %51
  br i1 %52, label %53, label %66

53:                                               ; preds = %39
  %54 = load i64, ptr %11, align 8
  call void @splitint64(i64 noundef %54, ptr noundef %12, ptr noundef %13)
  %55 = load double, ptr %8, align 8
  %56 = load double, ptr %12, align 8
  %57 = load double, ptr %9, align 8
  %58 = fmul double %56, %57
  %59 = fneg double %58
  %60 = call double @llvm.fmuladd.f64(double %55, double 2.500000e-01, double %59)
  %61 = load double, ptr %13, align 8
  %62 = load double, ptr %9, align 8
  %63 = fmul double %61, %62
  %64 = fneg double %63
  %65 = call double @llvm.fmuladd.f64(double 4.000000e+00, double %60, double %64)
  store double %65, ptr %5, align 8
  br label %77

66:                                               ; preds = %39
  %67 = load i64, ptr %11, align 8
  call void @splitint64(i64 noundef %67, ptr noundef %14, ptr noundef %15)
  %68 = load double, ptr %7, align 8
  %69 = load double, ptr %14, align 8
  %70 = load double, ptr %9, align 8
  %71 = fmul double %69, %70
  %72 = call double @llvm.fmuladd.f64(double %68, double 2.500000e-01, double %71)
  %73 = load double, ptr %15, align 8
  %74 = load double, ptr %9, align 8
  %75 = fmul double %73, %74
  %76 = call double @llvm.fmuladd.f64(double 4.000000e+00, double %72, double %75)
  store double %76, ptr %5, align 8
  br label %77

77:                                               ; preds = %66, %53, %38
  %78 = load double, ptr %5, align 8
  ret double %78
}