; Function Attrs: nounwind uwtable
define double @php_random_gammasection_open_open(ptr %0, ptr %1, double noundef %2, double noundef %3) local_unnamed_addr #0 {
  %5 = tail call double @llvm.fabs.f64(double %2)
  %6 = tail call double @llvm.fabs.f64(double %3)
  %7 = fcmp ogt double %5, %6
  br i1 %7, label %8, label %11

8:                                                ; preds = %4
  %9 = tail call double @nextafter(double noundef %2, double noundef 0x7FEFFFFFFFFFFFFF) #4
  %10 = fsub double %9, %2
  br label %gamma_max.exit

11:                                               ; preds = %4
  %12 = tail call double @nextafter(double noundef %3, double noundef 0xFFEFFFFFFFFFFFFF) #4
  %13 = fsub double %3, %12
  br label %gamma_max.exit

gamma_max.exit:                                   ; preds = %8, %11
  %14 = phi double [ %10, %8 ], [ %13, %11 ]
  %15 = fdiv double %3, %14
  %16 = fdiv double %2, %14
  %17 = fsub double %15, %16
  %18 = fcmp ugt double %5, %6
  br i1 %18, label %24, label %19

19:                                               ; preds = %gamma_max.exit
  %20 = fneg double %2
  %21 = fdiv double %20, %14
  %22 = fsub double %17, %15
  %23 = fsub double %21, %22
  br label %ceilint.exit

24:                                               ; preds = %gamma_max.exit
  %25 = fadd double %16, %17
  %26 = fsub double %15, %25
  br label %ceilint.exit

ceilint.exit:                                     ; preds = %19, %24
  %.0.i = phi double [ %23, %19 ], [ %26, %24 ]
  %27 = tail call double @llvm.ceil.f64(double %17)
  %28 = fcmp oeq double %17, %27
  %29 = fptoui double %27 to i64
  %30 = fcmp ogt double %.0.i, 0.000000e+00
  %narrow.i = and i1 %28, %30
  %31 = zext i1 %narrow.i to i64
  %32 = add i64 %31, %29
  %33 = fcmp ole double %3, %2
  %34 = icmp ult i64 %32, 2
  %35 = select i1 %33, i1 true, i1 %34
  br i1 %35, label %56, label %36

36:                                               ; preds = %ceilint.exit
  %37 = add i64 %32, -2
  %38 = tail call i64 @php_random_range64(ptr %0, ptr %1, i64 noundef %37) #4
  %39 = add i64 %38, 1
  %40 = lshr i64 %39, 2
  %41 = uitofp i64 %40 to double
  %42 = and i64 %39, 3
  %43 = uitofp i64 %42 to double
  br i1 %18, label %51, label %44

44:                                               ; preds = %36
  %45 = fneg double %41
  %46 = fmul double %14, %45
  %47 = tail call double @llvm.fmuladd.f64(double %3, double 2.500000e-01, double %46)
  %48 = fneg double %43
  %49 = fmul double %14, %48
  %50 = tail call double @llvm.fmuladd.f64(double %47, double 4.000000e+00, double %49)
  br label %56

51:                                               ; preds = %36
  %52 = fmul double %14, %41
  %53 = tail call double @llvm.fmuladd.f64(double %2, double 2.500000e-01, double %52)
  %54 = fmul double %14, %43
  %55 = tail call double @llvm.fmuladd.f64(double %53, double 4.000000e+00, double %54)
  br label %56

56:                                               ; preds = %ceilint.exit, %51, %44
  %.0 = phi double [ %50, %44 ], [ %55, %51 ], [ 0x7FF8000000000000, %ceilint.exit ]
  ret double %.0
}